; Function Attrs: mustprogress nofree nounwind willreturn memory(write, argmem: none, inaccessiblemem: readwrite) uwtable
define hidden noalias noundef ptr @python_hashlib_Hacl_Hash_SHA1_malloc() local_unnamed_addr #6 {
  %1 = tail call noalias dereferenceable_or_null(64) ptr @calloc(i64 noundef 64, i64 noundef 1) #16
  %2 = tail call noalias dereferenceable_or_null(20) ptr @calloc(i64 noundef 5, i64 noundef 4) #16
  %3 = tail call noalias dereferenceable_or_null(24) ptr @malloc(i64 noundef 24) #17
  store ptr %2, ptr %3, align 8, !tbaa !12
  %.sroa.4.0..sroa_idx = getelementptr inbounds nuw i8, ptr %3, i64 8
  store ptr %1, ptr %.sroa.4.0..sroa_idx, align 8, !tbaa !15
  %.sroa.5.0..sroa_idx = getelementptr inbounds nuw i8, ptr %3, i64 16
  store i64 0, ptr %.sroa.5.0..sroa_idx, align 8, !tbaa !17
  store i32 1732584193, ptr %2, align 4, !tbaa !3
  %4 = getelementptr i8, ptr %2, i64 4
  store i32 -271733879, ptr %4, align 4, !tbaa !3
  %5 = getelementptr i8, ptr %2, i64 8
  store i32 -1732584194, ptr %5, align 4, !tbaa !3
  %6 = getelementptr i8, ptr %2, i64 12
  store i32 271733878, ptr %6, align 4, !tbaa !3
  %7 = getelementptr i8, ptr %2, i64 16
  store i32 -1009589776, ptr %7, align 4, !tbaa !3
  ret ptr %3
}